; Function Attrs: mustprogress nounwind uwtable
define hidden void @_ZN18LambdaFormInvokers6appendEPc(ptr noundef %0) local_unnamed_addr #0 align 2 {
  %2 = alloca ptr, align 8
  store ptr %0, ptr %2, align 8
  %3 = load ptr, ptr @LambdaFormInvokers_lock, align 8
  %.not.i.i = icmp eq ptr %3, null
  br i1 %.not.i.i, label %_ZN11MutexLockerC2EP6ThreadP5MutexNS2_18SafepointCheckFlagE.exit, label %4

4:                                                ; preds = %1
  %5 = tail call align 8 ptr @llvm.threadlocal.address.p0(ptr align 8 @_ZN6Thread12_thr_currentE)
  %6 = load ptr, ptr %5, align 8
  tail call void @_ZN5Mutex4lockEP6Thread(ptr noundef nonnull align 8 dereferenceable(104) %3, ptr noundef %6) #13
  br label %_ZN11MutexLockerC2EP6ThreadP5MutexNS2_18SafepointCheckFlagE.exit

_ZN11MutexLockerC2EP6ThreadP5MutexNS2_18SafepointCheckFlagE.exit: ; preds = %1, %4
  %7 = load ptr, ptr @_ZN18LambdaFormInvokers17_lambdaform_linesE, align 8
  %8 = icmp eq ptr %7, null
  br i1 %8, label %9, label %14

9:                                                ; preds = %_ZN11MutexLockerC2EP6ThreadP5MutexNS2_18SafepointCheckFlagE.exit
  %10 = tail call noundef ptr @_ZN6AnyObjnwEm8MEMFLAGS(i64 noundef 16, i8 noundef zeroext 13) #13
  %11 = tail call noundef ptr @_ZN27GrowableArrayCHeapAllocator8allocateEii8MEMFLAGS(i32 noundef 150, i32 noundef 8, i8 noundef zeroext 13) #13
  store i32 0, ptr %10, align 4
  %12 = getelementptr inbounds i8, ptr %10, i64 4
  store i32 150, ptr %12, align 4
  %13 = getelementptr inbounds i8, ptr %10, i64 8
  store ptr %11, ptr %13, align 8
  tail call void @llvm.memset.p0.i64(ptr noundef nonnull align 8 dereferenceable(1200) %11, i8 0, i64 1200, i1 false)
  store ptr %10, ptr @_ZN18LambdaFormInvokers17_lambdaform_linesE, align 8
  br label %14

14:                                               ; preds = %9, %_ZN11MutexLockerC2EP6ThreadP5MutexNS2_18SafepointCheckFlagE.exit
  %15 = phi ptr [ %10, %9 ], [ %7, %_ZN11MutexLockerC2EP6ThreadP5MutexNS2_18SafepointCheckFlagE.exit ]
  %16 = call noundef i32 @_ZN26GrowableArrayWithAllocatorIPc18GrowableArrayCHeapIS0_L8MEMFLAGS13EEE6appendERKS0_(ptr noundef nonnull align 8 dereferenceable(16) %15, ptr noundef nonnull align 8 dereferenceable(8) %2)
  br i1 %.not.i.i, label %_ZN11MutexLockerD2Ev.exit, label %17

17:                                               ; preds = %14
  call void @_ZN5Mutex6unlockEv(ptr noundef nonnull align 8 dereferenceable(104) %3) #13
  br label %_ZN11MutexLockerD2Ev.exit

_ZN11MutexLockerD2Ev.exit:                        ; preds = %14, %17
  ret void
}